target datalayout = "e-m:e-p270:32:32-p271:32:32-p272:64:64-i64:64-i128:128-f80:128-n8:16:32:64-S128"
target triple = "x86_64-pc-linux-gnu"

%class.ConcurrentGCThread = type { %class.NamedThread.base, i8, i8, [2 x i8] }
%class.NamedThread.base = type <{ %class.NonJavaThread, ptr, ptr, i32 }>
%class.NonJavaThread = type { %class.Thread, ptr }
%class.Thread = type { %class.ThreadShadow.base, i64, [43 x i64], ptr, ptr, i32, ptr, i64, i64, %class.ThreadLocalAllocBuffer, i64, %class.ThreadHeapSampler, %class.ThreadStatisticalInfo, %class.JfrThreadLocal, ptr, ptr, ptr, ptr, ptr, ptr, i64, i32, i32, ptr, i32, i32, i32, i32, i8, ptr }
%class.ThreadShadow.base = type <{ ptr, ptr, ptr, i32 }>
%class.ThreadLocalAllocBuffer = type <{ ptr, ptr, ptr, ptr, ptr, i64, i64, i64, i64, i32, i32, i32, i32, i64, %class.AdaptiveWeightedAverage, [4 x i8] }>
%class.AdaptiveWeightedAverage = type { float, i32, i32, i8, float }
%class.ThreadHeapSampler = type { i64 }
%class.ThreadStatisticalInfo = type { i64, i64 }
%class.JfrThreadLocal = type <{ ptr, ptr, ptr, ptr, ptr, ptr, ptr, ptr, ptr, ptr, %class.RefCountHandle, i64, i64, i64, i64, i64, i64, i64, i64, i64, i64, i64, i32, i32, i32, i16, i8, i8, i8, i8, i8, [5 x i8] }>
%class.RefCountHandle = type { ptr }
%class.MonitorLocker = type <{ %class.MutexLockerImpl, i32, [4 x i8] }>
%class.MutexLockerImpl = type { ptr }
%"struct.Atomic::StoreImpl.3" = type { i8 }
%"struct.Atomic::PlatformOrderedStore.4" = type { i8 }

@Terminator_lock = external global ptr, align 8

; Function Attrs: mustprogress nounwind uwtable
define linkonce_odr hidden void @_ZNK6Atomic20PlatformOrderedStoreILm1EL15ScopedFenceType2EEclIbEEvPVT_S4_(ptr noundef nonnull align 1 dereferenceable(1) %0, ptr noundef %1, i1 noundef zeroext %2) #1 comdat align 2 {
  %4 = alloca ptr, align 8
  %5 = alloca ptr, align 8
  %6 = alloca i8, align 1
  store ptr %0, ptr %4, align 8
  store ptr %1, ptr %5, align 8
  %7 = zext i1 %2 to i8
  store i8 %7, ptr %6, align 1
  %8 = load i8, ptr %6, align 1
  %9 = trunc i8 %8 to i1
  %10 = load ptr, ptr %5, align 8
  %11 = call i8 asm sideeffect "xchgb ($2),$0", "=q,0,r,~{memory},~{dirflag},~{fpsr},~{flags}"(i1 %9, ptr %10) #5, !srcloc !9
  store i8 %11, ptr %6, align 1
  ret void
}

; Function Attrs: mustprogress nounwind uwtable
define linkonce_odr hidden void @_ZN15MutexLockerImplD2Ev(ptr noundef nonnull align 8 dereferenceable(8) %0) unnamed_addr #1 comdat align 2 {
  %2 = alloca ptr, align 8
  store ptr %0, ptr %2, align 8
  %3 = load ptr, ptr %2, align 8
  %4 = getelementptr inbounds %class.MutexLockerImpl, ptr %3, i32 0, i32 0
  %5 = load ptr, ptr %4, align 8
  %6 = icmp ne ptr %5, null
  br i1 %6, label %7, label %10

7:                                                ; preds = %1
  %8 = getelementptr inbounds %class.MutexLockerImpl, ptr %3, i32 0, i32 0
  %9 = load ptr, ptr %8, align 8
  call void @_ZN5Mutex6unlockEv(ptr noundef nonnull align 8 dereferenceable(104) %9)
  br label %10

10:                                               ; preds = %7, %1
  ret void
}

; Function Attrs: mustprogress nounwind uwtable
define linkonce_odr hidden noundef ptr @_ZNK13MonitorLocker10as_monitorEv(ptr noundef nonnull align 8 dereferenceable(12) %0) #1 comdat align 2 {
  %2 = alloca ptr, align 8
  store ptr %0, ptr %2, align 8
  %3 = load ptr, ptr %2, align 8
  %4 = getelementptr inbounds %class.MutexLockerImpl, ptr %3, i32 0, i32 0
  %5 = load ptr, ptr %4, align 8
  ret ptr %5
}

; Function Attrs: mustprogress nounwind uwtable
define linkonce_odr hidden void @_ZN15MutexLockerImplC2EP5MutexNS0_18SafepointCheckFlagE(ptr noundef nonnull align 8 dereferenceable(8) %0, ptr noundef %1, i32 noundef %2) unnamed_addr #1 comdat align 2 {
  %4 = alloca ptr, align 8
  %5 = alloca ptr, align 8
  %6 = alloca i32, align 4
  %7 = alloca i8, align 1
  store ptr %0, ptr %4, align 8
  store ptr %1, ptr %5, align 8
  store i32 %2, ptr %6, align 4
  %8 = load ptr, ptr %4, align 8
  %9 = getelementptr inbounds %class.MutexLockerImpl, ptr %8, i32 0, i32 0
  %10 = load ptr, ptr %5, align 8
  store ptr %10, ptr %9, align 8
  %11 = load i32, ptr %6, align 4
  %12 = icmp eq i32 %11, 1
  %13 = zext i1 %12 to i8
  store i8 %13, ptr %7, align 1
  %14 = getelementptr inbounds %class.MutexLockerImpl, ptr %8, i32 0, i32 0
  %15 = load ptr, ptr %14, align 8
  %16 = icmp ne ptr %15, null
  br i1 %16, label %17, label %27

17:                                               ; preds = %3
  %18 = load i8, ptr %7, align 1
  %19 = trunc i8 %18 to i1
  br i1 %19, label %20, label %23

20:                                               ; preds = %17
  %21 = getelementptr inbounds %class.MutexLockerImpl, ptr %8, i32 0, i32 0
  %22 = load ptr, ptr %21, align 8
  call void @_ZN5Mutex28lock_without_safepoint_checkEv(ptr noundef nonnull align 8 dereferenceable(104) %22)
  br label %26

23:                                               ; preds = %17
  %24 = getelementptr inbounds %class.MutexLockerImpl, ptr %8, i32 0, i32 0
  %25 = load ptr, ptr %24, align 8
  call void @_ZN5Mutex4lockEv(ptr noundef nonnull align 8 dereferenceable(104) %25)
  br label %26

26:                                               ; preds = %23, %20
  br label %27

27:                                               ; preds = %26, %3
  ret void
}

; Function Attrs: mustprogress nounwind uwtable
define linkonce_odr hidden void @_ZNK6Atomic9StoreImplIbbNS_20PlatformOrderedStoreILm1EL15ScopedFenceType2EEEvEclEPVbb(ptr noundef nonnull align 1 dereferenceable(1) %0, ptr noundef %1, i1 noundef zeroext %2) #1 comdat align 2 {
  %4 = alloca ptr, align 8
  %5 = alloca ptr, align 8
  %6 = alloca i8, align 1
  %7 = alloca %"struct.Atomic::PlatformOrderedStore.4", align 1
  store ptr %0, ptr %4, align 8
  store ptr %1, ptr %5, align 8
  %8 = zext i1 %2 to i8
  store i8 %8, ptr %6, align 1
  %9 = load ptr, ptr %5, align 8
  %10 = load i8, ptr %6, align 1
  %11 = trunc i8 %10 to i1
  call void @_ZNK6Atomic20PlatformOrderedStoreILm1EL15ScopedFenceType2EEclIbEEvPVT_S4_(ptr noundef nonnull align 1 dereferenceable(1) %7, ptr noundef %9, i1 noundef zeroext %11)
  ret void
}

; Function Attrs: mustprogress nounwind uwtable
define linkonce_odr hidden void @_ZN13MonitorLockerD2Ev(ptr noundef nonnull align 8 dereferenceable(12) %0) unnamed_addr #1 comdat align 2 {
  %2 = alloca ptr, align 8
  store ptr %0, ptr %2, align 8
  %3 = load ptr, ptr %2, align 8
  call void @_ZN15MutexLockerImplD2Ev(ptr noundef nonnull align 8 dereferenceable(8) %3) #5
  ret void
}

; Function Attrs: mustprogress nounwind uwtable
define linkonce_odr hidden noundef zeroext i1 @_ZN13MonitorLocker4waitEl(ptr noundef nonnull align 8 dereferenceable(12) %0, i64 noundef %1) #1 comdat align 2 {
  %3 = alloca ptr, align 8
  %4 = alloca i64, align 8
  store ptr %0, ptr %3, align 8
  store i64 %1, ptr %4, align 8
  %5 = load ptr, ptr %3, align 8
  %6 = getelementptr inbounds %class.MonitorLocker, ptr %5, i32 0, i32 1
  %7 = load i32, ptr %6, align 8
  %8 = icmp eq i32 %7, 0
  br i1 %8, label %9, label %13

9:                                                ; preds = %2
  %10 = call noundef ptr @_ZNK13MonitorLocker10as_monitorEv(ptr noundef nonnull align 8 dereferenceable(12) %5)
  %11 = load i64, ptr %4, align 8
  %12 = call noundef zeroext i1 @_ZN7Monitor4waitEm(ptr noundef nonnull align 8 dereferenceable(104) %10, i64 noundef %11)
  br label %17

13:                                               ; preds = %2
  %14 = call noundef ptr @_ZNK13MonitorLocker10as_monitorEv(ptr noundef nonnull align 8 dereferenceable(12) %5)
  %15 = load i64, ptr %4, align 8
  %16 = call noundef zeroext i1 @_ZN7Monitor28wait_without_safepoint_checkEm(ptr noundef nonnull align 8 dereferenceable(104) %14, i64 noundef %15)
  br label %17

17:                                               ; preds = %13, %9
  %18 = phi i1 [ %12, %9 ], [ %16, %13 ]
  ret i1 %18
}

; Function Attrs: mustprogress nounwind uwtable
define linkonce_odr hidden void @_ZN13MonitorLockerC2EP7MonitorN5Mutex18SafepointCheckFlagE(ptr noundef nonnull align 8 dereferenceable(12) %0, ptr noundef %1, i32 noundef %2) unnamed_addr #1 comdat align 2 {
  %4 = alloca ptr, align 8
  %5 = alloca ptr, align 8
  %6 = alloca i32, align 4
  store ptr %0, ptr %4, align 8
  store ptr %1, ptr %5, align 8
  store i32 %2, ptr %6, align 4
  %7 = load ptr, ptr %4, align 8
  %8 = load ptr, ptr %5, align 8
  %9 = load i32, ptr %6, align 4
  call void @_ZN15MutexLockerImplC2EP5MutexNS0_18SafepointCheckFlagE(ptr noundef nonnull align 8 dereferenceable(8) %7, ptr noundef %8, i32 noundef %9)
  %10 = getelementptr inbounds %class.MonitorLocker, ptr %7, i32 0, i32 1
  %11 = load i32, ptr %6, align 4
  store i32 %11, ptr %10, align 8
  ret void
}

; Function Attrs: mustprogress nounwind uwtable
define linkonce_odr hidden void @_ZN6Atomic19release_store_fenceIbbEEvPVT_T0_(ptr noundef %0, i1 noundef zeroext %1) #1 comdat align 2 {
  %3 = alloca ptr, align 8
  %4 = alloca i8, align 1
  %5 = alloca %"struct.Atomic::StoreImpl.3", align 1
  store ptr %0, ptr %3, align 8
  %6 = zext i1 %1 to i8
  store i8 %6, ptr %4, align 1
  %7 = load ptr, ptr %3, align 8
  %8 = load i8, ptr %4, align 1
  %9 = trunc i8 %8 to i1
  call void @_ZNK6Atomic9StoreImplIbbNS_20PlatformOrderedStoreILm1EL15ScopedFenceType2EEEvEclEPVbb(ptr noundef nonnull align 1 dereferenceable(1) %5, ptr noundef %7, i1 noundef zeroext %9)
  ret void
}

; Function Attrs: mustprogress nounwind uwtable
define hidden void @_ZN18ConcurrentGCThread4stopEv(ptr noundef nonnull align 8 dereferenceable(918) %0) unnamed_addr #1 align 2 {
  %2 = alloca ptr, align 8
  %3 = alloca %class.MonitorLocker, align 8
  store ptr %0, ptr %2, align 8
  %4 = load ptr, ptr %2, align 8
  %5 = getelementptr inbounds %class.ConcurrentGCThread, ptr %4, i32 0, i32 1
  call void @_ZN6Atomic19release_store_fenceIbbEEvPVT_T0_(ptr noundef %5, i1 noundef zeroext true)
  %6 = load ptr, ptr %4, align 8
  %7 = getelementptr inbounds ptr, ptr %6, i64 28
  %8 = load ptr, ptr %7, align 8
  call void %8(ptr noundef nonnull align 8 dereferenceable(918) %4)
  %9 = load ptr, ptr @Terminator_lock, align 8
  call void @_ZN13MonitorLockerC2EP7MonitorN5Mutex18SafepointCheckFlagE(ptr noundef nonnull align 8 dereferenceable(12) %3, ptr noundef %9, i32 noundef 0)
  br label %10

10:                                               ; preds = %15, %1
  %11 = getelementptr inbounds %class.ConcurrentGCThread, ptr %4, i32 0, i32 2
  %12 = load volatile i8, ptr %11, align 1
  %13 = trunc i8 %12 to i1
  %14 = xor i1 %13, true
  br i1 %14, label %15, label %17

15:                                               ; preds = %10
  %16 = call noundef zeroext i1 @_ZN13MonitorLocker4waitEl(ptr noundef nonnull align 8 dereferenceable(12) %3, i64 noundef 0)
  br label %10, !llvm.loop !6

17:                                               ; preds = %10
  call void @_ZN13MonitorLockerD2Ev(ptr noundef nonnull align 8 dereferenceable(12) %3) #5
  ret void
}