; Function Attrs: mustprogress nounwind uwtable
define hidden void @_ZN18ConcurrentGCThread4stopEv(ptr noundef nonnull align 8 dereferenceable(918) %0) unnamed_addr #0 align 2 {
  %2 = getelementptr inbounds i8, ptr %0, i64 916
  %3 = tail call i8 asm sideeffect "xchgb ($2),$0", "=q,0,r,~{memory},~{dirflag},~{fpsr},~{flags}"(i1 true, ptr nonnull %2) #4, !srcloc !7
  %4 = load ptr, ptr %0, align 8
  %5 = getelementptr inbounds i8, ptr %4, i64 224
  %6 = load ptr, ptr %5, align 8
  tail call void %6(ptr noundef nonnull align 8 dereferenceable(918) %0) #4
  %7 = load ptr, ptr @Terminator_lock, align 8
  %.not.i.i = icmp eq ptr %7, null
  br i1 %.not.i.i, label %_ZN13MonitorLockerC2EP7MonitorN5Mutex18SafepointCheckFlagE.exit, label %8

8:                                                ; preds = %1
  tail call void @_ZN5Mutex4lockEv(ptr noundef nonnull align 8 dereferenceable(104) %7) #4
  br label %_ZN13MonitorLockerC2EP7MonitorN5Mutex18SafepointCheckFlagE.exit

_ZN13MonitorLockerC2EP7MonitorN5Mutex18SafepointCheckFlagE.exit: ; preds = %1, %8
  %9 = getelementptr inbounds i8, ptr %0, i64 917
  %10 = load volatile i8, ptr %9, align 1
  %11 = trunc i8 %10 to i1
  br i1 %11, label %._crit_edge, label %_ZN13MonitorLocker4waitEl.exit

_ZN13MonitorLocker4waitEl.exit:                   ; preds = %_ZN13MonitorLockerC2EP7MonitorN5Mutex18SafepointCheckFlagE.exit, %_ZN13MonitorLocker4waitEl.exit
  %12 = tail call noundef zeroext i1 @_ZN7Monitor4waitEm(ptr noundef nonnull align 8 dereferenceable(104) %7, i64 noundef 0) #4
  %13 = load volatile i8, ptr %9, align 1
  %14 = trunc i8 %13 to i1
  br i1 %14, label %._crit_edge, label %_ZN13MonitorLocker4waitEl.exit, !llvm.loop !8

._crit_edge:                                      ; preds = %_ZN13MonitorLocker4waitEl.exit, %_ZN13MonitorLockerC2EP7MonitorN5Mutex18SafepointCheckFlagE.exit
  br i1 %.not.i.i, label %_ZN13MonitorLockerD2Ev.exit, label %15

15:                                               ; preds = %._crit_edge
  tail call void @_ZN5Mutex6unlockEv(ptr noundef nonnull align 8 dereferenceable(104) %7) #4
  br label %_ZN13MonitorLockerD2Ev.exit

_ZN13MonitorLockerD2Ev.exit:                      ; preds = %._crit_edge, %15
  ret void
}